target datalayout = "e-m:e-p270:32:32-p271:32:32-p272:64:64-i64:64-i128:128-f80:128-n8:16:32:64-S128"
target triple = "x86_64-pc-linux-gnu"

%struct.event = type { %struct.event_callback, %union.anon.2, i32, ptr, %union.anon.4, i16, i16, %struct.timeval }
%struct.event_callback = type { %struct.anon.0, i16, i8, i8, %union.anon.1, ptr }
%struct.anon.0 = type { ptr, ptr }
%union.anon.1 = type { ptr }
%union.anon.2 = type { %struct.anon.3 }
%struct.anon.3 = type { ptr, ptr }
%union.anon.4 = type { %struct.anon.5 }
%struct.anon.5 = type { %struct.anon.6, %struct.timeval }
%struct.anon.6 = type { ptr, ptr }
%struct.timeval = type { i64, i64 }
%struct.pmix_object_t = type { %union.pthread_mutex_t, ptr, i32, %struct.pmix_tma }
%union.pthread_mutex_t = type { %struct.__pthread_mutex_s }
%struct.__pthread_mutex_s = type { i32, i32, i32, i32, i32, i16, i16, %struct.__pthread_internal_list }
%struct.__pthread_internal_list = type { ptr, ptr }
%struct.pmix_tma = type { ptr, ptr, ptr, ptr, ptr, ptr, ptr, ptr }
%struct.pmix_proc = type { [256 x i8], i32 }
%struct.pmix_output_desc_t = type { i8, i8, i32, i8, i32, ptr, ptr, i32, ptr, i32, i8, i8, i8, i8, ptr, i32, i32 }
%struct.prte_process_info_t = type { %struct.pmix_proc, %struct.pmix_proc, ptr, %struct.pmix_proc, i32, i32, i32, ptr, ptr, i32, i8, ptr, i16, ptr, ptr, i8, ptr, i8 }
%struct.prte_plm_base_module_1_0_0_t = type { ptr, ptr, ptr, ptr, ptr, ptr, ptr, ptr, ptr }
%struct.pmix_mutex_t = type { %struct.pmix_object_t, %union.pthread_mutex_t }

@prte_tool_basename = external global ptr, align 8
@stderr = external global ptr, align 8
@term_handler = internal global %struct.event zeroinitializer, align 8
@.str.8 = private unnamed_addr constant [7 x i8] c"prte.c\00", align 1
@prte_exit_status = external global i32, align 4
@prte_debug_output = external global i32, align 4
@pmix_output_info = external global [0 x %struct.pmix_output_desc_t], align 8
@.str.54 = private unnamed_addr constant [37 x i8] c"%s:%s(%d) updating exit status to %d\00", align 1
@prte_process_info = external global %struct.prte_process_info_t, align 8
@forcibly_die = internal global i8 0, align 1
@.str.134 = private unnamed_addr constant [76 x i8] c"%s: abort is already in progress...hit ctrl-c again to forcibly terminate\0A\0A\00", align 1
@prte_dvm_abort_ordered = external global i8, align 1
@prte_execute_quiet = external global i8, align 1
@prte_abnormal_term_ordered = external global i8, align 1
@prte_plm = external global %struct.prte_plm_base_module_1_0_0_t, align 8

; Function Attrs: inlinehint nounwind uwtable
define internal i32 @pmix_mutex_trylock(ptr noundef %0) #3 {
  %2 = alloca ptr, align 8
  store ptr %0, ptr %2, align 8, !tbaa !206
  %3 = load ptr, ptr %2, align 8, !tbaa !206
  %4 = getelementptr inbounds nuw %struct.pmix_mutex_t, ptr %3, i32 0, i32 1
  %5 = call i32 @pthread_mutex_trylock(ptr noundef %4) #12
  ret i32 %5
}

; Function Attrs: nounwind uwtable
define internal void @clean_abort(i32 noundef %0, i16 noundef signext %1, ptr noundef %2) #0 {
  %4 = alloca i32, align 4
  %5 = alloca i16, align 2
  %6 = alloca ptr, align 8
  store i32 %0, ptr %4, align 4, !tbaa !4
  store i16 %1, ptr %5, align 2, !tbaa !159
  store ptr %2, ptr %6, align 8, !tbaa !30
  %7 = call i32 @pmix_mutex_trylock(ptr noundef @prun_abort_inprogress_lock)
  %8 = icmp ne i32 %7, 0
  br i1 %8, label %9, label %18

9:                                                ; preds = %3
  %10 = load i8, ptr @forcibly_die, align 1, !tbaa !11, !range !38, !noundef !39
  %11 = trunc i8 %10 to i1
  br i1 %11, label %12, label %13

12:                                               ; preds = %9
  call void @exit(i32 noundef 1) #14
  unreachable

13:                                               ; preds = %9
  %14 = load ptr, ptr @stderr, align 8, !tbaa !25
  %15 = load ptr, ptr @prte_tool_basename, align 8, !tbaa !22
  %16 = call i32 (ptr, ptr, ...) @fprintf(ptr noundef %14, ptr noundef @.str.134, ptr noundef %15) #12
  store i8 1, ptr @forcibly_die, align 1, !tbaa !11
  %17 = call i32 @event_add(ptr noundef @term_handler, ptr noundef null)
  br label %45

18:                                               ; preds = %3
  %19 = load ptr, ptr @stderr, align 8, !tbaa !25
  %20 = call i32 @fflush(ptr noundef %19)
  br label %21

21:                                               ; preds = %18
  %22 = load i32, ptr @prte_exit_status, align 4, !tbaa !4
  %23 = icmp eq i32 0, %22
  br i1 %23, label %24, label %41

24:                                               ; preds = %21
  %25 = load i32, ptr @prte_debug_output, align 4, !tbaa !4
  %26 = icmp sge i32 %25, 0
  br i1 %26, label %27, label %40

27:                                               ; preds = %24
  %28 = load i32, ptr @prte_debug_output, align 4, !tbaa !4
  %29 = icmp slt i32 %28, 64
  br i1 %29, label %30, label %40

30:                                               ; preds = %27
  %31 = load i32, ptr @prte_debug_output, align 4, !tbaa !4
  %32 = sext i32 %31 to i64
  %33 = getelementptr inbounds [0 x %struct.pmix_output_desc_t], ptr @pmix_output_info, i64 0, i64 %32
  %34 = getelementptr inbounds nuw %struct.pmix_output_desc_t, ptr %33, i32 0, i32 2
  %35 = load i32, ptr %34, align 4, !tbaa !60
  %36 = icmp sge i32 %35, 1
  br i1 %36, label %37, label %40

37:                                               ; preds = %30
  %38 = load i32, ptr @prte_debug_output, align 4, !tbaa !4
  %39 = call ptr @prte_util_print_name_args(ptr noundef @prte_process_info)
  call void (i32, ptr, ...) @pmix_output(i32 noundef %38, ptr noundef @.str.54, ptr noundef %39, ptr noundef @.str.8, i32 noundef 1285, i32 noundef 1)
  br label %40

40:                                               ; preds = %37, %30, %27, %24
  store i32 1, ptr @prte_exit_status, align 4, !tbaa !4
  br label %41

41:                                               ; preds = %40, %21
  br label %42

42:                                               ; preds = %41
  store i8 1, ptr @prte_dvm_abort_ordered, align 1, !tbaa !11
  store i8 1, ptr @prte_execute_quiet, align 1, !tbaa !11
  store i8 1, ptr @prte_abnormal_term_ordered, align 1, !tbaa !11
  %43 = load ptr, ptr getelementptr inbounds nuw (%struct.prte_plm_base_module_1_0_0_t, ptr @prte_plm, i32 0, i32 5), align 8, !tbaa !160
  %44 = call i32 %43()
  br label %45

45:                                               ; preds = %42, %13
  ret void
}