; Function Attrs: nounwind uwtable
define internal void @clean_abort(i32 %0, i16 signext %1, ptr readnone captures(none) %2) #0 {
  %4 = tail call i32 @pthread_mutex_trylock(ptr noundef nonnull getelementptr inbounds nuw (i8, ptr @prun_abort_inprogress_lock, i64 120)) #23
  %.not = icmp eq i32 %4, 0
  br i1 %.not, label %12, label %5

5:                                                ; preds = %3
  %.b2 = load i1, ptr @forcibly_die, align 1
  br i1 %.b2, label %6, label %7

6:                                                ; preds = %5
  tail call void @exit(i32 noundef 1) #25
  unreachable

7:                                                ; preds = %5
  %8 = load ptr, ptr @stderr, align 8, !tbaa !26
  %9 = load ptr, ptr @prte_tool_basename, align 8, !tbaa !24
  %10 = tail call i32 (ptr, ptr, ...) @fprintf(ptr noundef %8, ptr noundef nonnull @.str.134, ptr noundef %9) #27
  store i1 true, ptr @forcibly_die, align 1
  %11 = tail call i32 @event_add(ptr noundef nonnull @term_handler, ptr noundef null) #23
  br label %30

12:                                               ; preds = %3
  %13 = load ptr, ptr @stderr, align 8, !tbaa !26
  %14 = tail call i32 @fflush(ptr noundef %13)
  %15 = load i32, ptr @prte_exit_status, align 4, !tbaa !9
  %16 = icmp eq i32 %15, 0
  br i1 %16, label %17, label %27

17:                                               ; preds = %12
  %18 = load i32, ptr @prte_debug_output, align 4, !tbaa !9
  %or.cond = icmp ult i32 %18, 64
  br i1 %or.cond, label %19, label %26

19:                                               ; preds = %17
  %20 = zext nneg i32 %18 to i64
  %21 = getelementptr inbounds nuw [0 x %struct.pmix_output_desc_t], ptr @pmix_output_info, i64 0, i64 %20, i32 2
  %22 = load i32, ptr %21, align 4, !tbaa !65
  %23 = icmp sgt i32 %22, 0
  br i1 %23, label %24, label %26

24:                                               ; preds = %19
  %25 = tail call ptr @prte_util_print_name_args(ptr noundef nonnull @prte_process_info) #23
  tail call void (i32, ptr, ...) @pmix_output(i32 noundef %18, ptr noundef nonnull @.str.54, ptr noundef %25, ptr noundef nonnull @.str.8, i32 noundef 1285, i32 noundef 1) #23
  br label %26

26:                                               ; preds = %24, %19, %17
  store i32 1, ptr @prte_exit_status, align 4, !tbaa !9
  br label %27

27:                                               ; preds = %12, %26
  store i8 1, ptr @prte_dvm_abort_ordered, align 1, !tbaa !55
  store i8 1, ptr @prte_execute_quiet, align 1, !tbaa !55
  store i8 1, ptr @prte_abnormal_term_ordered, align 1, !tbaa !55
  %28 = load ptr, ptr getelementptr inbounds nuw (i8, ptr @prte_plm, i64 40), align 8, !tbaa !146
  %29 = tail call i32 %28() #23
  br label %30

30:                                               ; preds = %27, %7
  ret void
}